(dp1
S'openid'
p2
I00
sS'default_language'
p3
S'en_US'
p4
sS'save_interval'
p5
I360
sS'email'
p6
I00
sS'model_version'
p7
I1
sS'accounts'
p8
I00
sS'word_wrap_cols'
p9
I72
sS'server_pool'
p10
NsS'idle_check_interval'
p11
I360
s.