(lp1
(lp2
S'_sage_'
p3
a(dp4
S'username'
p5
g3
sS'account_type'
p6
S'user'
p7
sS'temporary_password'
p8
S''
sS'is_suspended'
p9
I00
sS'external_auth'
p10
NsS'viewable_worksheets'
p11
c__builtin__
set
p12
((ltRp13
sS'email_confirmed'
p14
I00
sS'conf'
p15
(dp16
sS'password'
p17
S'sha256$32f5cf6059567208f397ace164a06c1e64b83c57d931847f85f92123803f8ced$574d6c53e29aa3e0b98116e09c44ea1449c15f7048c427fa88fa0162ed60ea51'
p18
sS'email'
p19
S''
saa(lp20
S'admin'
p21
a(dp22
S'username'
p23
g21
sS'account_type'
p24
g21
sS'temporary_password'
p25
S''
sS'is_suspended'
p26
I00
sS'external_auth'
p27
NsS'viewable_worksheets'
p28
g12
((ltRp29
sS'email_confirmed'
p30
I00
sS'conf'
p31
(dp32
S'next_worksheet_id_number'
p33
I1
sS'default_system'
p34
S'sage'
p35
sS'max_history_length'
p36
I1000
sS'autosave_interval'
p37
I3600
ssS'password'
p38
S'sha256$5c19745dd4c7050c8a9d73038864c6cfe94790d51ed1e1ff34e046d72f2e241b$c452f442f1fddb859b3634c628a15f7cbef9344b49968a9f54618578d76a9c91'
p39
sS'email'
p40
S''
saa(lp41
S'guest'
p42
a(dp43
S'username'
p44
g42
sS'account_type'
p45
g42
sS'temporary_password'
p46
S''
sS'is_suspended'
p47
I00
sS'external_auth'
p48
NsS'viewable_worksheets'
p49
g12
((ltRp50
sS'email_confirmed'
p51
I00
sS'conf'
p52
(dp53
sS'password'
p54
S'sha256$8c42aa29c3499b63d701fcd45f90f3b624d46a8e15f8f0d0d3e8fd189100d84a$5fe40383809513ec153736d3bcd6ae904212ecaee104f2dcd3866b5d4f7508c4'
p55
sS'email'
p56
S''
saa(lp57
S'pub'
p58
a(dp59
S'username'
p60
g58
sS'account_type'
p61
g7
sS'temporary_password'
p62
S''
sS'is_suspended'
p63
I00
sS'external_auth'
p64
NsS'viewable_worksheets'
p65
g12
((ltRp66
sS'email_confirmed'
p67
I00
sS'conf'
p68
(dp69
sS'password'
p70
S'sha256$2d38d4fbb012688fbb6ebc7a36dd1469f244c7c9ae68504ad2f6628e4b1b0677$7d4a4adfd707f0c67c292fdea464ad69f9c845b1856e0c3f2afa5cd545252c4b'
p71
sS'email'
p72
S''
saa.